(dp1
S'cust'
p2
(islicedbms.schemas
SliceSchema
p3
(dp4
S'name'
p5
NsS'primaryKey'
p6
S'id'
p7
sS'columns'
p8
(dp9
S'phone'
p10
S'STRING'
p11
sS'add'
p12
g11
sg7
S'INTEGER'
p13
sS'name'
p14
g11
ssS'columnOrder'
p15
S'id,name,phone,add'
p16
sbsS'su'
p17
(ischemas
SliceSchema
p18
(dp19
g15
S'cust,cust2,cust3'
p20
sg5
Nsg8
(dp21
S'cust2'
p22
S'STRING'
p23
sS'cust'
p24
S'INTEGER'
p25
sS'cust3'
p26
S'DOUBLE'
p27
ssg6
g24
sbsS't'
(islicedbms.schemas
SliceSchema
p28
(dp29
g15
S'phone,ka'
p30
sg5
Nsg8
(dp31
S'phone'
p32
S'INTEGER'
p33
sS'ka'
p34
S'STRING'
p35
ssg6
NsbsS'su1'
p36
(ischemas
SliceSchema
p37
(dp38
g15
S'cust,cust2,cust3'
p39
sg5
Nsg8
(dp40
g22
g23
sg24
g25
sg26
g27
ssg6
NsbsS'test'
p41
(islicedbms.schemas
SliceSchema
p42
(dp43
g15
S'phone,add'
p44
sg5
Nsg8
(dp45
S'phone'
p46
g33
sS'add'
p47
g35
ssg6
NsbsS'su2'
p48
(ischemas
SliceSchema
p49
(dp50
g6
Nsg15
S'cust,cust4,cust5'
p51
sg8
(dp52
S'cust4'
p53
S'STRING'
p54
sS'cust5'
p55
S'DOUBLE'
p56
sS'cust'
p57
S'INTEGER'
p58
ssg5
Nsbs.